target datalayout = "e-m:e-p270:32:32-p271:32:32-p272:64:64-i64:64-i128:128-f80:128-n8:16:32:64-S128"
target triple = "x86_64-pc-linux-gnu"

%struct.ftmap_s = type { ptr, i32 }

; Function Attrs: nounwind uwtable
define i32 @cli_ftcode(ptr noundef %0) #0 {
  %2 = alloca i32, align 4
  %3 = alloca ptr, align 8
  %4 = alloca i32, align 4
  store ptr %0, ptr %3, align 8
  store i32 0, ptr %4, align 4
  br label %5

5:                                                ; preds = %28, %1
  %6 = load i32, ptr %4, align 4
  %7 = zext i32 %6 to i64
  %8 = getelementptr inbounds [87 x %struct.ftmap_s], ptr @ftmap, i64 0, i64 %7
  %9 = getelementptr inbounds %struct.ftmap_s, ptr %8, i32 0, i32 0
  %10 = load ptr, ptr %9, align 16
  %11 = icmp ne ptr %10, null
  br i1 %11, label %12, label %31

12:                                               ; preds = %5
  %13 = load i32, ptr %4, align 4
  %14 = zext i32 %13 to i64
  %15 = getelementptr inbounds [87 x %struct.ftmap_s], ptr @ftmap, i64 0, i64 %14
  %16 = getelementptr inbounds %struct.ftmap_s, ptr %15, i32 0, i32 0
  %17 = load ptr, ptr %16, align 16
  %18 = load ptr, ptr %3, align 8
  %19 = call i32 @strcmp(ptr noundef %17, ptr noundef %18) #6
  %20 = icmp ne i32 %19, 0
  br i1 %20, label %27, label %21

21:                                               ; preds = %12
  %22 = load i32, ptr %4, align 4
  %23 = zext i32 %22 to i64
  %24 = getelementptr inbounds [87 x %struct.ftmap_s], ptr @ftmap, i64 0, i64 %23
  %25 = getelementptr inbounds %struct.ftmap_s, ptr %24, i32 0, i32 1
  %26 = load i32, ptr %25, align 8
  store i32 %26, ptr %2, align 4
  br label %32

27:                                               ; preds = %12
  br label %28

28:                                               ; preds = %27
  %29 = load i32, ptr %4, align 4
  %30 = add i32 %29, 1
  store i32 %30, ptr %4, align 4
  br label %5

31:                                               ; preds = %5
  store i32 505, ptr %2, align 4
  br label %32

32:                                               ; preds = %31, %21
  %33 = load i32, ptr %2, align 4
  ret i32 %33
}