; Function Attrs: nofree nounwind memory(read, inaccessiblemem: none) uwtable
define i32 @cli_ftcode(ptr noundef readonly captures(none) %0) local_unnamed_addr #0 {
  %2 = tail call i32 @strcmp(ptr noundef nonnull dereferenceable(19) @.str.33, ptr noundef nonnull dereferenceable(1) %0) #9
  %.not714 = icmp eq i32 %2, 0
  br i1 %.not714, label %._crit_edge, label %.lr.ph

.lr.ph:                                           ; preds = %1, %3
  %indvars.iv15 = phi i64 [ %indvars.iv.next, %3 ], [ 0, %1 ]
  %indvars.iv.next = add nuw nsw i64 %indvars.iv15, 1
  %exitcond = icmp eq i64 %indvars.iv.next, 86
  br i1 %exitcond, label %.loopexit, label %3

3:                                                ; preds = %.lr.ph
  %4 = getelementptr inbounds nuw [87 x %struct.ftmap_s], ptr @ftmap, i64 0, i64 %indvars.iv.next
  %5 = load ptr, ptr %4, align 16
  %6 = tail call i32 @strcmp(ptr noundef nonnull dereferenceable(1) %5, ptr noundef nonnull dereferenceable(1) %0) #9
  %.not7 = icmp eq i32 %6, 0
  br i1 %.not7, label %._crit_edge, label %.lr.ph

._crit_edge:                                      ; preds = %3, %1
  %.lcssa = phi ptr [ @ftmap, %1 ], [ %4, %3 ]
  %7 = getelementptr inbounds nuw i8, ptr %.lcssa, i64 8
  %8 = load i32, ptr %7, align 8
  br label %.loopexit

.loopexit:                                        ; preds = %.lr.ph, %._crit_edge
  %.05 = phi i32 [ %8, %._crit_edge ], [ 505, %.lr.ph ]
  ret i32 %.05
}